; Function Attrs: nounwind uwtable
define noalias nonnull ptr @l___private_Lean_Meta_Injective_0__Lean_Meta_injTheoremFailureHeader(ptr noundef %0) local_unnamed_addr #0 {
  %2 = tail call ptr @l_Lean_MessageData_ofName(ptr noundef %0) #5
  %3 = load ptr, ptr @l___private_Lean_Meta_Injective_0__Lean_Meta_injTheoremFailureHeader___closed__2, align 8, !tbaa !4
  tail call void @lean_inc_heartbeat() #5
  %4 = tail call noalias ptr @mi_malloc_small(i64 noundef 24) #5
  %5 = icmp eq ptr %4, null
  br i1 %5, label %6, label %lean_alloc_ctor.exit

6:                                                ; preds = %1
  tail call void @lean_internal_panic_out_of_memory() #6
  unreachable

lean_alloc_ctor.exit:                             ; preds = %1
  %7 = getelementptr inbounds nuw i8, ptr %4, i64 4
  store i32 1, ptr %4, align 4, !tbaa !8
  store i32 117571608, ptr %7, align 4
  %8 = getelementptr inbounds nuw i8, ptr %4, i64 8
  store ptr %3, ptr %8, align 8, !tbaa !4
  %9 = getelementptr inbounds nuw i8, ptr %4, i64 16
  store ptr %2, ptr %9, align 8, !tbaa !4
  %10 = load ptr, ptr @l___private_Lean_Meta_Injective_0__Lean_Meta_injTheoremFailureHeader___closed__4, align 8, !tbaa !4
  tail call void @lean_inc_heartbeat() #5
  %11 = tail call noalias ptr @mi_malloc_small(i64 noundef 24) #5
  %12 = icmp eq ptr %11, null
  br i1 %12, label %13, label %lean_alloc_ctor.exit10

13:                                               ; preds = %lean_alloc_ctor.exit
  tail call void @lean_internal_panic_out_of_memory() #6
  unreachable

lean_alloc_ctor.exit10:                           ; preds = %lean_alloc_ctor.exit
  %14 = getelementptr inbounds nuw i8, ptr %11, i64 4
  store i32 1, ptr %11, align 4, !tbaa !8
  store i32 117571608, ptr %14, align 4
  %15 = getelementptr inbounds nuw i8, ptr %11, i64 8
  store ptr %4, ptr %15, align 8, !tbaa !4
  %16 = getelementptr inbounds nuw i8, ptr %11, i64 16
  store ptr %10, ptr %16, align 8, !tbaa !4
  ret ptr %11
}